target datalayout = "e-m:e-p270:32:32-p271:32:32-p272:64:64-i64:64-i128:128-f80:128-n8:16:32:64-S128"
target triple = "x86_64-pc-linux-gnu"

; Function Attrs: nounwind uwtable
define internal void @dc_127_4x4_c(ptr noundef %0, i64 noundef %1, ptr noundef %2, ptr noundef %3) #1 {
  %5 = alloca ptr, align 8
  %6 = alloca i64, align 8
  %7 = alloca ptr, align 8
  %8 = alloca ptr, align 8
  %9 = alloca ptr, align 8
  %10 = alloca i64, align 8
  store ptr %0, ptr %5, align 8, !tbaa !10
  store i64 %1, ptr %6, align 8, !tbaa !12
  store ptr %2, ptr %7, align 8, !tbaa !10
  store ptr %3, ptr %8, align 8, !tbaa !10
  call void @llvm.lifetime.start.p0(i64 8, ptr %9) #9
  %11 = load ptr, ptr %5, align 8, !tbaa !10
  store ptr %11, ptr %9, align 8, !tbaa !14
  call void @llvm.lifetime.start.p0(i64 8, ptr %10) #9
  store i64 143835907860922879, ptr %10, align 8, !tbaa !12
  %12 = load i64, ptr %6, align 8, !tbaa !12
  %13 = udiv i64 %12, 2
  store i64 %13, ptr %6, align 8, !tbaa !12
  %14 = load i64, ptr %10, align 8, !tbaa !12
  %15 = load ptr, ptr %9, align 8, !tbaa !14
  %16 = load i64, ptr %6, align 8, !tbaa !12
  %17 = mul nsw i64 %16, 0
  %18 = getelementptr inbounds i16, ptr %15, i64 %17
  store i64 %14, ptr %18, align 8, !tbaa !16
  %19 = load i64, ptr %10, align 8, !tbaa !12
  %20 = load ptr, ptr %9, align 8, !tbaa !14
  %21 = load i64, ptr %6, align 8, !tbaa !12
  %22 = mul nsw i64 %21, 1
  %23 = getelementptr inbounds i16, ptr %20, i64 %22
  store i64 %19, ptr %23, align 8, !tbaa !16
  %24 = load i64, ptr %10, align 8, !tbaa !12
  %25 = load ptr, ptr %9, align 8, !tbaa !14
  %26 = load i64, ptr %6, align 8, !tbaa !12
  %27 = mul nsw i64 %26, 2
  %28 = getelementptr inbounds i16, ptr %25, i64 %27
  store i64 %24, ptr %28, align 8, !tbaa !16
  %29 = load i64, ptr %10, align 8, !tbaa !12
  %30 = load ptr, ptr %9, align 8, !tbaa !14
  %31 = load i64, ptr %6, align 8, !tbaa !12
  %32 = mul nsw i64 %31, 3
  %33 = getelementptr inbounds i16, ptr %30, i64 %32
  store i64 %29, ptr %33, align 8, !tbaa !16
  call void @llvm.lifetime.end.p0(i64 8, ptr %10) #9
  call void @llvm.lifetime.end.p0(i64 8, ptr %9) #9
  ret void
}